target datalayout = "e-m:e-p270:32:32-p271:32:32-p272:64:64-i64:64-i128:128-f80:128-n8:16:32:64-S128"
target triple = "x86_64-pc-linux-gnu"

@hf_do_irp_data_len = internal global i32 0, align 4
@hf_do_irp_data_value = internal global i32 0, align 4
@hf_do_irp_pkrec = internal global i32 0, align 4
@hf_do_irp_pkrec_len = internal global i32 0, align 4
@hf_do_irp_pkrec_type = internal global i32 0, align 4
@hf_do_irp_pkrec_dsa_q = internal global i32 0, align 4
@hf_do_irp_pkrec_dsa_p = internal global i32 0, align 4
@hf_do_irp_pkrec_dsa_g = internal global i32 0, align 4
@hf_do_irp_pkrec_dsa_y = internal global i32 0, align 4
@hf_do_irp_pkrec_dh_p = internal global i32 0, align 4
@hf_do_irp_pkrec_dh_g = internal global i32 0, align 4
@hf_do_irp_pkrec_dh_y = internal global i32 0, align 4
@hf_do_irp_pkrec_rsa_exp = internal global i32 0, align 4
@hf_do_irp_pkrec_rsa_mod = internal global i32 0, align 4
@ett_do_irp_string = internal global i32 0, align 4
@ett_do_irp_pk = internal global i32 0, align 4
@.str.381 = private unnamed_addr constant [6 x i8] c" (%s)\00", align 1
@.str.402 = private unnamed_addr constant [12 x i8] c"DSA_PUB_KEY\00", align 1
@.str.403 = private unnamed_addr constant [12 x i8] c"RSA_PUB_KEY\00", align 1
@.str.404 = private unnamed_addr constant [11 x i8] c"DH_PUB_KEY\00", align 1

; Function Attrs: null_pointer_is_valid sspstrong uwtable
define internal i32 @decode_generic_data(ptr noundef %0, ptr noundef %1, i32 noundef %2, i32 noundef %3) #0 {
  %5 = alloca ptr, align 8
  %6 = alloca ptr, align 8
  %7 = alloca i32, align 4
  %8 = alloca i32, align 4
  %9 = alloca i32, align 4
  %10 = alloca ptr, align 8
  %11 = alloca ptr, align 8
  store ptr %0, ptr %5, align 8
  store ptr %1, ptr %6, align 8
  store i32 %2, ptr %7, align 4
  store i32 %3, ptr %8, align 4
  call void @llvm.lifetime.start.p0(i64 4, ptr %9) #8
  %12 = load ptr, ptr %5, align 8
  %13 = load i32, ptr %7, align 4
  %14 = call i32 @tvb_get_int32(ptr noundef %12, i32 noundef %13, i32 noundef 0)
  store i32 %14, ptr %9, align 4
  call void @llvm.lifetime.start.p0(i64 8, ptr %10) #8
  %15 = load ptr, ptr %6, align 8
  %16 = load i32, ptr %8, align 4
  %17 = load ptr, ptr %5, align 8
  %18 = load i32, ptr %7, align 4
  %19 = load i32, ptr %9, align 4
  %20 = add i32 %19, 4
  %21 = call ptr @proto_tree_add_item(ptr noundef %15, i32 noundef %16, ptr noundef %17, i32 noundef %18, i32 noundef %20, i32 noundef 0)
  store ptr %21, ptr %10, align 8
  call void @llvm.lifetime.start.p0(i64 8, ptr %11) #8
  %22 = load ptr, ptr %10, align 8
  %23 = load i32, ptr @ett_do_irp_string, align 4
  %24 = call ptr @proto_item_add_subtree(ptr noundef %22, i32 noundef %23)
  store ptr %24, ptr %11, align 8
  %25 = load ptr, ptr %11, align 8
  %26 = load i32, ptr @hf_do_irp_data_len, align 4
  %27 = load ptr, ptr %5, align 8
  %28 = load i32, ptr %7, align 4
  %29 = call ptr @proto_tree_add_item(ptr noundef %25, i32 noundef %26, ptr noundef %27, i32 noundef %28, i32 noundef 4, i32 noundef 0)
  %30 = load ptr, ptr %11, align 8
  %31 = load i32, ptr @hf_do_irp_data_value, align 4
  %32 = load ptr, ptr %5, align 8
  %33 = load i32, ptr %7, align 4
  %34 = add i32 %33, 4
  %35 = load i32, ptr %9, align 4
  %36 = call ptr @proto_tree_add_item(ptr noundef %30, i32 noundef %31, ptr noundef %32, i32 noundef %34, i32 noundef %35, i32 noundef 0)
  %37 = load i32, ptr %9, align 4
  %38 = add i32 %37, 4
  call void @llvm.lifetime.end.p0(i64 8, ptr %11) #8
  call void @llvm.lifetime.end.p0(i64 8, ptr %10) #8
  call void @llvm.lifetime.end.p0(i64 4, ptr %9) #8
  ret i32 %38
}

; Function Attrs: null_pointer_is_valid sspstrong uwtable
define internal i32 @decode_pk_data(ptr noundef %0, ptr noundef %1, ptr noundef %2, i32 noundef %3) #0 {
  %5 = alloca ptr, align 8
  %6 = alloca ptr, align 8
  %7 = alloca ptr, align 8
  %8 = alloca i32, align 4
  %9 = alloca i32, align 4
  %10 = alloca i32, align 4
  %11 = alloca ptr, align 8
  %12 = alloca ptr, align 8
  %13 = alloca ptr, align 8
  %14 = alloca i32, align 4
  store ptr %0, ptr %5, align 8
  store ptr %1, ptr %6, align 8
  store ptr %2, ptr %7, align 8
  store i32 %3, ptr %8, align 4
  call void @llvm.lifetime.start.p0(i64 4, ptr %9) #8
  store i32 0, ptr %9, align 4
  call void @llvm.lifetime.start.p0(i64 4, ptr %10) #8
  %15 = load ptr, ptr %5, align 8
  %16 = load i32, ptr %8, align 4
  %17 = load i32, ptr %9, align 4
  %18 = add i32 %16, %17
  %19 = call i32 @tvb_get_uint32(ptr noundef %15, i32 noundef %18, i32 noundef 0)
  store i32 %19, ptr %10, align 4
  call void @llvm.lifetime.start.p0(i64 8, ptr %11) #8
  %20 = load ptr, ptr %7, align 8
  %21 = load i32, ptr @hf_do_irp_pkrec, align 4
  %22 = load ptr, ptr %5, align 8
  %23 = load i32, ptr %8, align 4
  %24 = load i32, ptr %10, align 4
  %25 = add i32 %24, 4
  %26 = call ptr @proto_tree_add_item(ptr noundef %20, i32 noundef %21, ptr noundef %22, i32 noundef %23, i32 noundef %25, i32 noundef 0)
  store ptr %26, ptr %11, align 8
  call void @llvm.lifetime.start.p0(i64 8, ptr %12) #8
  %27 = load ptr, ptr %11, align 8
  %28 = load i32, ptr @ett_do_irp_pk, align 4
  %29 = call ptr @proto_item_add_subtree(ptr noundef %27, i32 noundef %28)
  store ptr %29, ptr %12, align 8
  %30 = load ptr, ptr %12, align 8
  %31 = load i32, ptr @hf_do_irp_pkrec_len, align 4
  %32 = load ptr, ptr %5, align 8
  %33 = load i32, ptr %8, align 4
  %34 = load i32, ptr %9, align 4
  %35 = add i32 %33, %34
  %36 = call ptr @proto_tree_add_item(ptr noundef %30, i32 noundef %31, ptr noundef %32, i32 noundef %35, i32 noundef 4, i32 noundef 0)
  %37 = load i32, ptr %9, align 4
  %38 = add i32 %37, 4
  store i32 %38, ptr %9, align 4
  call void @llvm.lifetime.start.p0(i64 8, ptr %13) #8
  call void @llvm.lifetime.start.p0(i64 4, ptr %14) #8
  %39 = load ptr, ptr %5, align 8
  %40 = load ptr, ptr %6, align 8
  %41 = load ptr, ptr %12, align 8
  %42 = load i32, ptr %8, align 4
  %43 = load i32, ptr %9, align 4
  %44 = add i32 %42, %43
  %45 = load i32, ptr @hf_do_irp_pkrec_type, align 4
  %46 = call i32 @decode_string(ptr noundef %39, ptr noundef %40, ptr noundef %41, i32 noundef %44, i32 noundef %45, ptr noundef %13)
  store i32 %46, ptr %14, align 4
  %47 = load i32, ptr %14, align 4
  %48 = load i32, ptr %9, align 4
  %49 = add i32 %48, %47
  store i32 %49, ptr %9, align 4
  %50 = load i32, ptr %9, align 4
  %51 = add i32 %50, 2
  store i32 %51, ptr %9, align 4
  %52 = load ptr, ptr %12, align 8
  %53 = load ptr, ptr %13, align 8
  call void (ptr, ptr, ...) @proto_item_append_text(ptr noundef %52, ptr noundef @.str.381, ptr noundef %53)
  %54 = load ptr, ptr %13, align 8
  %55 = call i32 @strcmp(ptr noundef @.str.402, ptr noundef %54) #9
  %56 = icmp ne i32 %55, 0
  br i1 %56, label %92, label %57

57:                                               ; preds = %4
  %58 = load ptr, ptr %5, align 8
  %59 = load ptr, ptr %12, align 8
  %60 = load i32, ptr %8, align 4
  %61 = load i32, ptr %9, align 4
  %62 = add i32 %60, %61
  %63 = load i32, ptr @hf_do_irp_pkrec_dsa_q, align 4
  %64 = call i32 @decode_generic_data(ptr noundef %58, ptr noundef %59, i32 noundef %62, i32 noundef %63)
  %65 = load i32, ptr %9, align 4
  %66 = add i32 %65, %64
  store i32 %66, ptr %9, align 4
  %67 = load ptr, ptr %5, align 8
  %68 = load ptr, ptr %12, align 8
  %69 = load i32, ptr %8, align 4
  %70 = load i32, ptr %9, align 4
  %71 = add i32 %69, %70
  %72 = load i32, ptr @hf_do_irp_pkrec_dsa_p, align 4
  %73 = call i32 @decode_generic_data(ptr noundef %67, ptr noundef %68, i32 noundef %71, i32 noundef %72)
  %74 = load i32, ptr %9, align 4
  %75 = add i32 %74, %73
  store i32 %75, ptr %9, align 4
  %76 = load ptr, ptr %5, align 8
  %77 = load ptr, ptr %12, align 8
  %78 = load i32, ptr %8, align 4
  %79 = load i32, ptr %9, align 4
  %80 = add i32 %78, %79
  %81 = load i32, ptr @hf_do_irp_pkrec_dsa_g, align 4
  %82 = call i32 @decode_generic_data(ptr noundef %76, ptr noundef %77, i32 noundef %80, i32 noundef %81)
  %83 = load i32, ptr %9, align 4
  %84 = add i32 %83, %82
  store i32 %84, ptr %9, align 4
  %85 = load ptr, ptr %5, align 8
  %86 = load ptr, ptr %12, align 8
  %87 = load i32, ptr %8, align 4
  %88 = load i32, ptr %9, align 4
  %89 = add i32 %87, %88
  %90 = load i32, ptr @hf_do_irp_pkrec_dsa_y, align 4
  %91 = call i32 @decode_generic_data(ptr noundef %85, ptr noundef %86, i32 noundef %89, i32 noundef %90)
  br label %145

92:                                               ; preds = %4
  %93 = load ptr, ptr %13, align 8
  %94 = call i32 @strcmp(ptr noundef @.str.403, ptr noundef %93) #9
  %95 = icmp ne i32 %94, 0
  br i1 %95, label %113, label %96

96:                                               ; preds = %92
  %97 = load ptr, ptr %5, align 8
  %98 = load ptr, ptr %12, align 8
  %99 = load i32, ptr %8, align 4
  %100 = load i32, ptr %9, align 4
  %101 = add i32 %99, %100
  %102 = load i32, ptr @hf_do_irp_pkrec_rsa_exp, align 4
  %103 = call i32 @decode_generic_data(ptr noundef %97, ptr noundef %98, i32 noundef %101, i32 noundef %102)
  %104 = load i32, ptr %9, align 4
  %105 = add i32 %104, %103
  store i32 %105, ptr %9, align 4
  %106 = load ptr, ptr %5, align 8
  %107 = load ptr, ptr %12, align 8
  %108 = load i32, ptr %8, align 4
  %109 = load i32, ptr %9, align 4
  %110 = add i32 %108, %109
  %111 = load i32, ptr @hf_do_irp_pkrec_rsa_mod, align 4
  %112 = call i32 @decode_generic_data(ptr noundef %106, ptr noundef %107, i32 noundef %110, i32 noundef %111)
  br label %144

113:                                              ; preds = %92
  %114 = load ptr, ptr %13, align 8
  %115 = call i32 @strcmp(ptr noundef @.str.404, ptr noundef %114) #9
  %116 = icmp ne i32 %115, 0
  br i1 %116, label %143, label %117

117:                                              ; preds = %113
  %118 = load ptr, ptr %5, align 8
  %119 = load ptr, ptr %12, align 8
  %120 = load i32, ptr %8, align 4
  %121 = load i32, ptr %9, align 4
  %122 = add i32 %120, %121
  %123 = load i32, ptr @hf_do_irp_pkrec_dh_y, align 4
  %124 = call i32 @decode_generic_data(ptr noundef %118, ptr noundef %119, i32 noundef %122, i32 noundef %123)
  %125 = load i32, ptr %9, align 4
  %126 = add i32 %125, %124
  store i32 %126, ptr %9, align 4
  %127 = load ptr, ptr %5, align 8
  %128 = load ptr, ptr %12, align 8
  %129 = load i32, ptr %8, align 4
  %130 = load i32, ptr %9, align 4
  %131 = add i32 %129, %130
  %132 = load i32, ptr @hf_do_irp_pkrec_dh_p, align 4
  %133 = call i32 @decode_generic_data(ptr noundef %127, ptr noundef %128, i32 noundef %131, i32 noundef %132)
  %134 = load i32, ptr %9, align 4
  %135 = add i32 %134, %133
  store i32 %135, ptr %9, align 4
  %136 = load ptr, ptr %5, align 8
  %137 = load ptr, ptr %12, align 8
  %138 = load i32, ptr %8, align 4
  %139 = load i32, ptr %9, align 4
  %140 = add i32 %138, %139
  %141 = load i32, ptr @hf_do_irp_pkrec_dh_g, align 4
  %142 = call i32 @decode_generic_data(ptr noundef %136, ptr noundef %137, i32 noundef %140, i32 noundef %141)
  br label %143

143:                                              ; preds = %117, %113
  br label %144

144:                                              ; preds = %143, %96
  br label %145

145:                                              ; preds = %144, %57
  %146 = load i32, ptr %10, align 4
  %147 = add i32 %146, 4
  call void @llvm.lifetime.end.p0(i64 4, ptr %14) #8
  call void @llvm.lifetime.end.p0(i64 8, ptr %13) #8
  call void @llvm.lifetime.end.p0(i64 8, ptr %12) #8
  call void @llvm.lifetime.end.p0(i64 8, ptr %11) #8
  call void @llvm.lifetime.end.p0(i64 4, ptr %10) #8
  call void @llvm.lifetime.end.p0(i64 4, ptr %9) #8
  ret i32 %147
}