; Function Attrs: null_pointer_is_valid sspstrong uwtable
define internal fastcc noundef i32 @decode_pk_data(ptr noundef %0, ptr noundef readonly captures(none) %1, ptr noundef %2, i32 noundef %3) unnamed_addr #0 {
  %5 = alloca ptr, align 8
  %6 = tail call i32 @tvb_get_uint32(ptr noundef %0, i32 noundef %3, i32 noundef 0)
  %7 = load i32, ptr @hf_do_irp_pkrec, align 4
  %8 = add i32 %6, 4
  %9 = tail call ptr @proto_tree_add_item(ptr noundef %2, i32 noundef %7, ptr noundef %0, i32 noundef %3, i32 noundef %8, i32 noundef 0)
  %10 = load i32, ptr @ett_do_irp_pk, align 4
  %11 = tail call ptr @proto_item_add_subtree(ptr noundef %9, i32 noundef %10)
  %12 = load i32, ptr @hf_do_irp_pkrec_len, align 4
  %13 = tail call ptr @proto_tree_add_item(ptr noundef %11, i32 noundef %12, ptr noundef %0, i32 noundef %3, i32 noundef 4, i32 noundef 0)
  call void @llvm.lifetime.start.p0(i64 8, ptr nonnull %5) #6
  %14 = add i32 %3, 4
  %15 = load i32, ptr @hf_do_irp_pkrec_type, align 4
  %16 = call fastcc i32 @decode_string(ptr noundef %0, ptr noundef %1, ptr noundef %11, i32 noundef %14, i32 noundef %15, ptr noundef nonnull %5)
  %17 = add i32 %16, 6
  %18 = load ptr, ptr %5, align 8
  call void (ptr, ptr, ...) @proto_item_append_text(ptr noundef %11, ptr noundef nonnull @.str.381, ptr noundef %18)
  %19 = load ptr, ptr %5, align 8
  %20 = call i32 @strcmp(ptr noundef nonnull dereferenceable(12) @.str.402, ptr noundef %19) #8
  %.not = icmp eq i32 %20, 0
  br i1 %.not, label %21, label %35

21:                                               ; preds = %4
  %22 = add i32 %17, %3
  %23 = load i32, ptr @hf_do_irp_pkrec_dsa_q, align 4
  %24 = call i32 @tvb_get_int32(ptr noundef %0, i32 noundef %22, i32 noundef 0)
  %25 = add i32 %24, 4
  %26 = call ptr @proto_tree_add_item(ptr noundef %11, i32 noundef %23, ptr noundef %0, i32 noundef %22, i32 noundef %25, i32 noundef 0)
  %27 = load i32, ptr @ett_do_irp_string, align 4
  %28 = call ptr @proto_item_add_subtree(ptr noundef %26, i32 noundef %27)
  %29 = load i32, ptr @hf_do_irp_data_len, align 4
  %30 = call ptr @proto_tree_add_item(ptr noundef %28, i32 noundef %29, ptr noundef %0, i32 noundef %22, i32 noundef 4, i32 noundef 0)
  %31 = load i32, ptr @hf_do_irp_data_value, align 4
  %32 = add i32 %22, 4
  %33 = call ptr @proto_tree_add_item(ptr noundef %28, i32 noundef %31, ptr noundef %0, i32 noundef %32, i32 noundef %24, i32 noundef 0)
  %34 = add i32 %25, %17
  br label %.sink.split.sink.split

35:                                               ; preds = %4
  %36 = call i32 @strcmp(ptr noundef nonnull dereferenceable(12) @.str.403, ptr noundef %19) #8
  %.not64 = icmp eq i32 %36, 0
  br i1 %.not64, label %.sink.split, label %37

37:                                               ; preds = %35
  %38 = call i32 @strcmp(ptr noundef nonnull dereferenceable(11) @.str.404, ptr noundef %19) #8
  %.not65 = icmp eq i32 %38, 0
  br i1 %.not65, label %.sink.split.sink.split, label %76

.sink.split.sink.split:                           ; preds = %37, %21
  %.sink111 = phi i32 [ %34, %21 ], [ %17, %37 ]
  %hf_do_irp_pkrec_dsa_p.sink = phi ptr [ @hf_do_irp_pkrec_dsa_p, %21 ], [ @hf_do_irp_pkrec_dh_y, %37 ]
  %hf_do_irp_pkrec_rsa_exp.sink.ph = phi ptr [ @hf_do_irp_pkrec_dsa_g, %21 ], [ @hf_do_irp_pkrec_dh_p, %37 ]
  %hf_do_irp_pkrec_rsa_mod.sink.ph = phi ptr [ @hf_do_irp_pkrec_dsa_y, %21 ], [ @hf_do_irp_pkrec_dh_g, %37 ]
  %39 = add i32 %.sink111, %3
  %40 = load i32, ptr %hf_do_irp_pkrec_dsa_p.sink, align 4
  %41 = call i32 @tvb_get_int32(ptr noundef %0, i32 noundef %39, i32 noundef 0)
  %42 = add i32 %41, 4
  %43 = call ptr @proto_tree_add_item(ptr noundef %11, i32 noundef %40, ptr noundef %0, i32 noundef %39, i32 noundef %42, i32 noundef 0)
  %44 = load i32, ptr @ett_do_irp_string, align 4
  %45 = call ptr @proto_item_add_subtree(ptr noundef %43, i32 noundef %44)
  %46 = load i32, ptr @hf_do_irp_data_len, align 4
  %47 = call ptr @proto_tree_add_item(ptr noundef %45, i32 noundef %46, ptr noundef %0, i32 noundef %39, i32 noundef 4, i32 noundef 0)
  %48 = load i32, ptr @hf_do_irp_data_value, align 4
  %49 = add i32 %39, 4
  %50 = call ptr @proto_tree_add_item(ptr noundef %45, i32 noundef %48, ptr noundef %0, i32 noundef %49, i32 noundef %41, i32 noundef 0)
  %51 = add i32 %42, %.sink111
  br label %.sink.split

.sink.split:                                      ; preds = %.sink.split.sink.split, %35
  %.sink95 = phi i32 [ %17, %35 ], [ %51, %.sink.split.sink.split ]
  %hf_do_irp_pkrec_rsa_exp.sink = phi ptr [ @hf_do_irp_pkrec_rsa_exp, %35 ], [ %hf_do_irp_pkrec_rsa_exp.sink.ph, %.sink.split.sink.split ]
  %hf_do_irp_pkrec_rsa_mod.sink = phi ptr [ @hf_do_irp_pkrec_rsa_mod, %35 ], [ %hf_do_irp_pkrec_rsa_mod.sink.ph, %.sink.split.sink.split ]
  %52 = add i32 %.sink95, %3
  %53 = load i32, ptr %hf_do_irp_pkrec_rsa_exp.sink, align 4
  %54 = call i32 @tvb_get_int32(ptr noundef %0, i32 noundef %52, i32 noundef 0)
  %55 = add i32 %54, 4
  %56 = call ptr @proto_tree_add_item(ptr noundef %11, i32 noundef %53, ptr noundef %0, i32 noundef %52, i32 noundef %55, i32 noundef 0)
  %57 = load i32, ptr @ett_do_irp_string, align 4
  %58 = call ptr @proto_item_add_subtree(ptr noundef %56, i32 noundef %57)
  %59 = load i32, ptr @hf_do_irp_data_len, align 4
  %60 = call ptr @proto_tree_add_item(ptr noundef %58, i32 noundef %59, ptr noundef %0, i32 noundef %52, i32 noundef 4, i32 noundef 0)
  %61 = load i32, ptr @hf_do_irp_data_value, align 4
  %62 = add i32 %52, 4
  %63 = call ptr @proto_tree_add_item(ptr noundef %58, i32 noundef %61, ptr noundef %0, i32 noundef %62, i32 noundef %54, i32 noundef 0)
  %64 = add i32 %52, %55
  %65 = load i32, ptr %hf_do_irp_pkrec_rsa_mod.sink, align 4
  %66 = call i32 @tvb_get_int32(ptr noundef %0, i32 noundef %64, i32 noundef 0)
  %67 = add i32 %66, 4
  %68 = call ptr @proto_tree_add_item(ptr noundef %11, i32 noundef %65, ptr noundef %0, i32 noundef %64, i32 noundef %67, i32 noundef 0)
  %69 = load i32, ptr @ett_do_irp_string, align 4
  %70 = call ptr @proto_item_add_subtree(ptr noundef %68, i32 noundef %69)
  %71 = load i32, ptr @hf_do_irp_data_len, align 4
  %72 = call ptr @proto_tree_add_item(ptr noundef %70, i32 noundef %71, ptr noundef %0, i32 noundef %64, i32 noundef 4, i32 noundef 0)
  %73 = load i32, ptr @hf_do_irp_data_value, align 4
  %74 = add i32 %64, 4
  %75 = call ptr @proto_tree_add_item(ptr noundef %70, i32 noundef %73, ptr noundef %0, i32 noundef %74, i32 noundef %66, i32 noundef 0)
  br label %76

76:                                               ; preds = %.sink.split, %37
  call void @llvm.lifetime.end.p0(i64 8, ptr nonnull %5) #6
  ret i32 %8
}